Certificate:
    Data:
        Version: 3 (0x2)
        Serial Number: 1 (0x1)
        Signature Algorithm: sha1WithRSAEncryption
        Issuer: C=PT, ST=LISBON, L=LISBON, O=IST, OU=IST, CN=IST CA/emailAddress=geral@contatudo.gsr
        Validity
            Not Before: May 24 15:55:12 2017 GMT
            Not After : May 22 15:55:12 2027 GMT
        Subject: C=PT, ST=LISBON, L=LISBON, O=IST, OU=IST, CN=server/emailAddress=geral@contatudo.gsr
        Subject Public Key Info:
            Public Key Algorithm: rsaEncryption
            RSA Public Key: (1024 bit)
                Modulus (1024 bit):
                    00:e1:af:46:2e:25:f2:75:59:be:b5:ed:3b:54:19:
                    b6:d4:08:37:21:90:1a:d0:9d:c0:96:cd:d3:98:f5:
                    e9:e0:c5:3c:d8:c7:5e:2d:cd:18:45:4c:c2:3a:d8:
                    f4:33:4c:ad:84:03:d5:50:6d:bf:18:6a:3d:01:93:
                    65:a3:ad:84:d5:37:d3:db:38:f1:41:49:7a:d3:28:
                    7d:66:b0:1b:89:6f:46:99:d0:52:1a:9a:f0:c6:40:
                    45:f1:66:1a:84:0f:de:8d:6a:fe:fe:ba:6b:57:8c:
                    85:ad:49:fe:60:72:70:f8:9b:e8:69:1f:47:a1:d7:
                    65:29:7d:26:a4:2c:d2:89:93
                Exponent: 65537 (0x10001)
        X509v3 extensions:
            X509v3 Basic Constraints: 
                CA:FALSE
            Netscape Cert Type: 
                SSL Server
            Netscape Comment: 
                Easy-RSA Generated Server Certificate
            X509v3 Subject Key Identifier: 
                3F:F9:FB:9E:9D:E5:6E:26:8B:1F:95:23:E2:AF:D9:6B:F6:BA:0C:FC
            X509v3 Authority Key Identifier: 
                keyid:F3:35:E1:86:97:C8:AE:30:50:18:AF:20:3E:EF:36:9A:46:BD:37:F3
                DirName:/C=PT/ST=LISBON/L=LISBON/O=IST/OU=IST/CN=IST CA/emailAddress=geral@contatudo.gsr
                serial:B8:0A:05:0F:41:41:33:B4

            X509v3 Extended Key Usage: 
                TLS Web Server Authentication
            X509v3 Key Usage: 
                Digital Signature, Key Encipherment
    Signature Algorithm: sha1WithRSAEncryption
        3a:df:e6:7f:76:73:76:b5:ac:48:93:e5:7a:82:00:53:9f:2f:
        20:67:b2:6d:35:b1:93:0a:3f:1a:94:a3:47:54:f0:9c:f6:66:
        4e:8e:03:6f:05:12:9d:c0:a0:86:67:72:a3:d0:d8:ef:9f:94:
        c7:38:9d:49:2a:04:a1:b1:09:2b:48:82:c1:b3:18:08:ce:2a:
        c7:21:2e:96:53:d0:25:ec:19:c0:a5:ce:2c:98:1e:45:65:2e:
        b7:1f:c7:37:a1:23:ef:4a:b0:1c:85:27:03:1f:e2:35:ef:23:
        a7:b3:2b:e4:16:ab:9b:f8:97:ff:31:f2:bd:41:9e:97:46:de:
        80:09
-----BEGIN CERTIFICATE-----
MIIDyzCCAzSgAwIBAgIBATANBgkqhkiG9w0BAQUFADCBgDELMAkGA1UEBhMCUFQx
DzANBgNVBAgTBkxJU0JPTjEPMA0GA1UEBxMGTElTQk9OMQwwCgYDVQQKEwNJU1Qx
DDAKBgNVBAsTA0lTVDEPMA0GA1UEAxMGSVNUIENBMSIwIAYJKoZIhvcNAQkBFhNn
ZXJhbEBjb250YXR1ZG8uZ3NyMB4XDTE3MDUyNDE1NTUxMloXDTI3MDUyMjE1NTUx
MlowgYAxCzAJBgNVBAYTAlBUMQ8wDQYDVQQIEwZMSVNCT04xDzANBgNVBAcTBkxJ
U0JPTjEMMAoGA1UEChMDSVNUMQwwCgYDVQQLEwNJU1QxDzANBgNVBAMTBnNlcnZl
cjEiMCAGCSqGSIb3DQEJARYTZ2VyYWxAY29udGF0dWRvLmdzcjCBnzANBgkqhkiG
9w0BAQEFAAOBjQAwgYkCgYEA4a9GLiXydVm+te07VBm21Ag3IZAa0J3Als3TmPXp
4MU82MdeLc0YRUzCOtj0M0ythAPVUG2/GGo9AZNlo62E1TfT2zjxQUl60yh9ZrAb
iW9GmdBSGprwxkBF8WYahA/ejWr+/rprV4yFrUn+YHJw+JvoaR9HoddlKX0mpCzS
iZMCAwEAAaOCAVEwggFNMAkGA1UdEwQCMAAwEQYJYIZIAYb4QgEBBAQDAgZAMDQG
CWCGSAGG+EIBDQQnFiVFYXN5LVJTQSBHZW5lcmF0ZWQgU2VydmVyIENlcnRpZmlj
YXRlMB0GA1UdDgQWBBQ/+fueneVuJosflSPir9lr9roM/DCBtQYDVR0jBIGtMIGq
gBTzNeGGl8iuMFAYryA+7zaaRr0386GBhqSBgzCBgDELMAkGA1UEBhMCUFQxDzAN
BgNVBAgTBkxJU0JPTjEPMA0GA1UEBxMGTElTQk9OMQwwCgYDVQQKEwNJU1QxDDAK
BgNVBAsTA0lTVDEPMA0GA1UEAxMGSVNUIENBMSIwIAYJKoZIhvcNAQkBFhNnZXJh
bEBjb250YXR1ZG8uZ3NyggkAuAoFD0FBM7QwEwYDVR0lBAwwCgYIKwYBBQUHAwEw
CwYDVR0PBAQDAgWgMA0GCSqGSIb3DQEBBQUAA4GBADrf5n92c3a1rEiT5XqCAFOf
LyBnsm01sZMKPxqUo0dU8Jz2Zk6OA28FEp3AoIZncqPQ2O+flMc4nUkqBKGxCStI
gsGzGAjOKschLpZT0CXsGcClziyYHkVlLrcfxzehI+9KsByFJwMf4jXvI6ezK+QW
q5v4l/8x8r1BnpdG3oAJ
-----END CERTIFICATE-----
